target datalayout = "e-m:e-p270:32:32-p271:32:32-p272:64:64-i64:64-i128:128-f80:128-n8:16:32:64-S128"
target triple = "x86_64-pc-linux-gnu"

%"class.fmt::v11::basic_string_view" = type { ptr, i64 }
%"class.fmt::v11::detail::buffer" = type { ptr, i64, i64, ptr }
%"class.fmt::v11::basic_format_args" = type { i64, %union.anon.6 }
%union.anon.6 = type { ptr }
%"struct.fmt::v11::detail::locale_ref" = type { ptr }
%"class.fmt::v11::detail::glibc_file" = type { %"class.fmt::v11::detail::file_base" }
%"class.fmt::v11::detail::file_base" = type { ptr }
%"struct.fmt::v11::detail::has_flockfile" = type { i8 }
%"class.fmt::v11::detail::file_print_buffer" = type { %"class.fmt::v11::detail::buffer", %"class.fmt::v11::detail::glibc_file" }
%struct._IO_FILE = type { i32, ptr, ptr, ptr, ptr, ptr, ptr, ptr, ptr, ptr, ptr, ptr, ptr, ptr, i32, i32, i64, i16, i8, [1 x i8], ptr, i64, ptr, ptr, ptr, ptr, i64, i32, [20 x i8] }
%"struct.fmt::v11::detail::span" = type { ptr, i64 }

@.str.3 = private unnamed_addr constant [15 x i8] c"negative value\00", align 1

; Function Attrs: mustprogress nounwind uwtable
define linkonce_odr hidden void @_ZN3fmt3v116detail13ignore_unusedIJbA15_cEEEvDpRKT_(ptr noundef nonnull align 1 dereferenceable(1) %0, ptr noundef nonnull align 1 dereferenceable(15) %1) #3 comdat {
  %3 = alloca ptr, align 8
  %4 = alloca ptr, align 8
  store ptr %0, ptr %3, align 8, !tbaa !42
  store ptr %1, ptr %4, align 8, !tbaa !4
  ret void
}

; Function Attrs: mustprogress nounwind uwtable
define linkonce_odr hidden noundef i64 @_ZN3fmt3v116detail11to_unsignedIlEENSt13make_unsignedIT_E4typeES4_(i64 noundef %0) #3 comdat {
  %2 = alloca i64, align 8
  %3 = alloca i8, align 1
  store i64 %0, ptr %2, align 8, !tbaa !15
  call void @llvm.lifetime.start.p0(i64 1, ptr %3) #26
  %4 = load i64, ptr %2, align 8, !tbaa !15
  %5 = icmp sge i64 %4, 0
  %6 = zext i1 %5 to i8
  store i8 %6, ptr %3, align 1, !tbaa !17
  call void @_ZN3fmt3v116detail13ignore_unusedIJbA15_cEEEvDpRKT_(ptr noundef nonnull align 1 dereferenceable(1) %3, ptr noundef nonnull align 1 dereferenceable(15) @.str.3)
  call void @llvm.lifetime.end.p0(i64 1, ptr %3) #26
  %7 = load i64, ptr %2, align 8, !tbaa !15
  ret i64 %7
}

; Function Attrs: inlinehint mustprogress uwtable
define available_externally i32 @putc_unlocked(i32 noundef %0, ptr noundef %1) #7 {
  %3 = alloca i32, align 4
  %4 = alloca ptr, align 8
  store i32 %0, ptr %3, align 4, !tbaa !9
  store ptr %1, ptr %4, align 8, !tbaa !11
  %5 = load ptr, ptr %4, align 8, !tbaa !11
  %6 = getelementptr inbounds nuw %struct._IO_FILE, ptr %5, i32 0, i32 5
  %7 = load ptr, ptr %6, align 8, !tbaa !687
  %8 = load ptr, ptr %4, align 8, !tbaa !11
  %9 = getelementptr inbounds nuw %struct._IO_FILE, ptr %8, i32 0, i32 6
  %10 = load ptr, ptr %9, align 8, !tbaa !688
  %11 = icmp uge ptr %7, %10
  %12 = zext i1 %11 to i64
  %13 = call i64 @llvm.expect.i64(i64 %12, i64 0)
  %14 = icmp ne i64 %13, 0
  br i1 %14, label %15, label %21

15:                                               ; preds = %2
  %16 = load ptr, ptr %4, align 8, !tbaa !11
  %17 = load i32, ptr %3, align 4, !tbaa !9
  %18 = trunc i32 %17 to i8
  %19 = zext i8 %18 to i32
  %20 = call i32 @__overflow(ptr noundef %16, i32 noundef %19)
  br label %29

21:                                               ; preds = %2
  %22 = load i32, ptr %3, align 4, !tbaa !9
  %23 = trunc i32 %22 to i8
  %24 = load ptr, ptr %4, align 8, !tbaa !11
  %25 = getelementptr inbounds nuw %struct._IO_FILE, ptr %24, i32 0, i32 5
  %26 = load ptr, ptr %25, align 8, !tbaa !687
  %27 = getelementptr inbounds nuw i8, ptr %26, i32 1
  store ptr %27, ptr %25, align 8, !tbaa !687
  store i8 %23, ptr %26, align 1, !tbaa !53
  %28 = zext i8 %23 to i32
  br label %29

29:                                               ; preds = %21, %15
  %30 = phi i32 [ %20, %15 ], [ %28, %21 ]
  ret i32 %30
}

; Function Attrs: alwaysinline mustprogress nounwind uwtable
define linkonce_odr hidden void @_ZN3fmt3v116detail6assumeEb(i1 noundef zeroext %0) #9 comdat {
  %2 = alloca i8, align 1
  %3 = zext i1 %0 to i8
  store i8 %3, ptr %2, align 1, !tbaa !17
  %4 = load i8, ptr %2, align 1, !tbaa !17, !range !136, !noundef !137
  %5 = trunc i8 %4 to i1
  call void @llvm.assume(i1 %5)
  ret void
}

; Function Attrs: mustprogress nounwind uwtable
define linkonce_odr hidden void @_ZN3fmt3v116detail6bufferIcE3setEPcm(ptr noundef nonnull align 8 dereferenceable(32) %0, ptr noundef %1, i64 noundef %2) #3 comdat align 2 {
  %4 = alloca ptr, align 8
  %5 = alloca ptr, align 8
  %6 = alloca i64, align 8
  store ptr %0, ptr %4, align 8, !tbaa !13
  store ptr %1, ptr %5, align 8, !tbaa !4
  store i64 %2, ptr %6, align 8, !tbaa !15
  %7 = load ptr, ptr %4, align 8
  %8 = load ptr, ptr %5, align 8, !tbaa !4
  %9 = getelementptr inbounds nuw %"class.fmt::v11::detail::buffer", ptr %7, i32 0, i32 0
  store ptr %8, ptr %9, align 8, !tbaa !48
  %10 = load i64, ptr %6, align 8, !tbaa !15
  %11 = getelementptr inbounds nuw %"class.fmt::v11::detail::buffer", ptr %7, i32 0, i32 2
  store i64 %10, ptr %11, align 8, !tbaa !19
  ret void
}

; Function Attrs: mustprogress nounwind uwtable
define linkonce_odr hidden { ptr, i64 } @_ZNK3fmt3v116detail10glibc_fileI8_IO_FILEE16get_write_bufferEv(ptr noundef nonnull align 8 dereferenceable(8) %0) #3 comdat align 2 {
  %2 = alloca %"struct.fmt::v11::detail::span", align 8
  %3 = alloca ptr, align 8
  %4 = alloca ptr, align 8
  store ptr %0, ptr %3, align 8, !tbaa !150
  %5 = load ptr, ptr %3, align 8
  call void @llvm.lifetime.start.p0(i64 8, ptr %4) #26
  %6 = getelementptr inbounds nuw %"class.fmt::v11::detail::file_base", ptr %5, i32 0, i32 0
  %7 = load ptr, ptr %6, align 8, !tbaa !152
  %8 = getelementptr inbounds nuw %struct._IO_FILE, ptr %7, i32 0, i32 5
  %9 = load ptr, ptr %8, align 8, !tbaa !687
  store ptr %9, ptr %4, align 8, !tbaa !4
  %10 = getelementptr inbounds nuw %"struct.fmt::v11::detail::span", ptr %2, i32 0, i32 0
  %11 = load ptr, ptr %4, align 8, !tbaa !4
  store ptr %11, ptr %10, align 8, !tbaa !162
  %12 = getelementptr inbounds nuw %"struct.fmt::v11::detail::span", ptr %2, i32 0, i32 1
  %13 = getelementptr inbounds nuw %"class.fmt::v11::detail::file_base", ptr %5, i32 0, i32 0
  %14 = load ptr, ptr %13, align 8, !tbaa !152
  %15 = getelementptr inbounds nuw %struct._IO_FILE, ptr %14, i32 0, i32 8
  %16 = load ptr, ptr %15, align 8, !tbaa !689
  %17 = load ptr, ptr %4, align 8, !tbaa !4
  %18 = ptrtoint ptr %16 to i64
  %19 = ptrtoint ptr %17 to i64
  %20 = sub i64 %18, %19
  %21 = call noundef i64 @_ZN3fmt3v116detail11to_unsignedIlEENSt13make_unsignedIT_E4typeES4_(i64 noundef %20)
  store i64 %21, ptr %12, align 8, !tbaa !164
  call void @llvm.lifetime.end.p0(i64 8, ptr %4) #26
  %22 = load { ptr, i64 }, ptr %2, align 8
  ret { ptr, i64 } %22
}

; Function Attrs: mustprogress uwtable
define linkonce_odr hidden void @_ZN3fmt3v116detail10glibc_fileI8_IO_FILEE11init_bufferEv(ptr noundef nonnull align 8 dereferenceable(8) %0) #4 comdat align 2 {
  %2 = alloca ptr, align 8
  store ptr %0, ptr %2, align 8, !tbaa !150
  %3 = load ptr, ptr %2, align 8
  %4 = getelementptr inbounds nuw %"class.fmt::v11::detail::file_base", ptr %3, i32 0, i32 0
  %5 = load ptr, ptr %4, align 8, !tbaa !152
  %6 = getelementptr inbounds nuw %struct._IO_FILE, ptr %5, i32 0, i32 5
  %7 = load ptr, ptr %6, align 8, !tbaa !687
  %8 = icmp ne ptr %7, null
  br i1 %8, label %9, label %10

9:                                                ; preds = %1
  br label %28

10:                                               ; preds = %1
  %11 = getelementptr inbounds nuw %"class.fmt::v11::detail::file_base", ptr %3, i32 0, i32 0
  %12 = load ptr, ptr %11, align 8, !tbaa !152
  %13 = getelementptr inbounds nuw %struct._IO_FILE, ptr %12, i32 0, i32 5
  %14 = load ptr, ptr %13, align 8, !tbaa !687
  %15 = getelementptr inbounds nuw %"class.fmt::v11::detail::file_base", ptr %3, i32 0, i32 0
  %16 = load ptr, ptr %15, align 8, !tbaa !152
  %17 = getelementptr inbounds nuw %struct._IO_FILE, ptr %16, i32 0, i32 6
  %18 = load ptr, ptr %17, align 8, !tbaa !688
  %19 = icmp uge ptr %14, %18
  call void @_ZN3fmt3v116detail6assumeEb(i1 noundef zeroext %19)
  %20 = getelementptr inbounds nuw %"class.fmt::v11::detail::file_base", ptr %3, i32 0, i32 0
  %21 = load ptr, ptr %20, align 8, !tbaa !152
  %22 = call i32 @putc_unlocked(i32 noundef 0, ptr noundef %21)
  %23 = getelementptr inbounds nuw %"class.fmt::v11::detail::file_base", ptr %3, i32 0, i32 0
  %24 = load ptr, ptr %23, align 8, !tbaa !152
  %25 = getelementptr inbounds nuw %struct._IO_FILE, ptr %24, i32 0, i32 5
  %26 = load ptr, ptr %25, align 8, !tbaa !687
  %27 = getelementptr inbounds i8, ptr %26, i32 -1
  store ptr %27, ptr %25, align 8, !tbaa !687
  br label %28

28:                                               ; preds = %10, %9
  ret void
}

; Function Attrs: mustprogress nounwind uwtable
define linkonce_odr hidden void @_ZN3fmt3v116detail6bufferIcEC2EPFvRS3_mEm(ptr noundef nonnull align 8 dereferenceable(32) %0, ptr noundef %1, i64 noundef %2) unnamed_addr #3 comdat align 2 {
  %4 = alloca ptr, align 8
  %5 = alloca ptr, align 8
  %6 = alloca i64, align 8
  store ptr %0, ptr %4, align 8, !tbaa !13
  store ptr %1, ptr %5, align 8, !tbaa !31
  store i64 %2, ptr %6, align 8, !tbaa !15
  %7 = load ptr, ptr %4, align 8
  %8 = getelementptr inbounds nuw %"class.fmt::v11::detail::buffer", ptr %7, i32 0, i32 1
  %9 = load i64, ptr %6, align 8, !tbaa !15
  store i64 %9, ptr %8, align 8, !tbaa !21
  %10 = getelementptr inbounds nuw %"class.fmt::v11::detail::buffer", ptr %7, i32 0, i32 2
  %11 = load i64, ptr %6, align 8, !tbaa !15
  store i64 %11, ptr %10, align 8, !tbaa !19
  %12 = getelementptr inbounds nuw %"class.fmt::v11::detail::buffer", ptr %7, i32 0, i32 3
  %13 = load ptr, ptr %5, align 8, !tbaa !31
  store ptr %13, ptr %12, align 8, !tbaa !213
  ret void
}

; Function Attrs: mustprogress nounwind uwtable
define linkonce_odr hidden void @_ZN3fmt3v116detail9file_baseI8_IO_FILEEC2EPS3_(ptr noundef nonnull align 8 dereferenceable(8) %0, ptr noundef %1) unnamed_addr #3 comdat align 2 {
  %3 = alloca ptr, align 8
  %4 = alloca ptr, align 8
  store ptr %0, ptr %3, align 8, !tbaa !655
  store ptr %1, ptr %4, align 8, !tbaa !11
  %5 = load ptr, ptr %3, align 8
  %6 = getelementptr inbounds nuw %"class.fmt::v11::detail::file_base", ptr %5, i32 0, i32 0
  %7 = load ptr, ptr %4, align 8, !tbaa !11
  store ptr %7, ptr %6, align 8, !tbaa !152
  ret void
}

; Function Attrs: mustprogress nounwind uwtable
define linkonce_odr hidden void @_ZN3fmt3v116detail10locale_refC2Ev(ptr noundef nonnull align 8 dereferenceable(8) %0) unnamed_addr #3 comdat align 2 {
  %2 = alloca ptr, align 8
  store ptr %0, ptr %2, align 8, !tbaa !56
  %3 = load ptr, ptr %2, align 8
  %4 = getelementptr inbounds nuw %"struct.fmt::v11::detail::locale_ref", ptr %3, i32 0, i32 0
  store ptr null, ptr %4, align 8, !tbaa !58
  ret void
}

; Function Attrs: mustprogress uwtable
define linkonce_odr hidden void @_ZN3fmt3v116detail17file_print_bufferI8_IO_FILEvEC2EPS3_(ptr noundef nonnull align 8 dereferenceable(40) %0, ptr noundef %1) unnamed_addr #4 comdat align 2 {
  %3 = alloca ptr, align 8
  %4 = alloca ptr, align 8
  %5 = alloca %"struct.fmt::v11::detail::span", align 8
  store ptr %0, ptr %3, align 8, !tbaa !148
  store ptr %1, ptr %4, align 8, !tbaa !11
  %6 = load ptr, ptr %3, align 8
  call void @_ZN3fmt3v116detail6bufferIcEC2EPFvRS3_mEm(ptr noundef nonnull align 8 dereferenceable(32) %6, ptr noundef @_ZN3fmt3v116detail17file_print_bufferI8_IO_FILEvE4growERNS1_6bufferIcEEm, i64 noundef 0) #26
  %7 = getelementptr inbounds nuw %"class.fmt::v11::detail::file_print_buffer", ptr %6, i32 0, i32 1
  %8 = load ptr, ptr %4, align 8, !tbaa !11
  call void @_ZN3fmt3v116detail10glibc_fileI8_IO_FILEECI2NS1_9file_baseIS3_EEEPS3_(ptr noundef nonnull align 8 dereferenceable(8) %7, ptr noundef %8)
  %9 = load ptr, ptr %4, align 8, !tbaa !11
  call void @flockfile(ptr noundef %9) #26
  %10 = getelementptr inbounds nuw %"class.fmt::v11::detail::file_print_buffer", ptr %6, i32 0, i32 1
  call void @_ZN3fmt3v116detail10glibc_fileI8_IO_FILEE11init_bufferEv(ptr noundef nonnull align 8 dereferenceable(8) %10)
  call void @llvm.lifetime.start.p0(i64 16, ptr %5) #26
  %11 = getelementptr inbounds nuw %"class.fmt::v11::detail::file_print_buffer", ptr %6, i32 0, i32 1
  %12 = call { ptr, i64 } @_ZNK3fmt3v116detail10glibc_fileI8_IO_FILEE16get_write_bufferEv(ptr noundef nonnull align 8 dereferenceable(8) %11)
  %13 = getelementptr inbounds nuw { ptr, i64 }, ptr %5, i32 0, i32 0
  %14 = extractvalue { ptr, i64 } %12, 0
  store ptr %14, ptr %13, align 8
  %15 = getelementptr inbounds nuw { ptr, i64 }, ptr %5, i32 0, i32 1
  %16 = extractvalue { ptr, i64 } %12, 1
  store i64 %16, ptr %15, align 8
  %17 = getelementptr inbounds nuw %"struct.fmt::v11::detail::span", ptr %5, i32 0, i32 0
  %18 = load ptr, ptr %17, align 8, !tbaa !162
  %19 = getelementptr inbounds nuw %"struct.fmt::v11::detail::span", ptr %5, i32 0, i32 1
  %20 = load i64, ptr %19, align 8, !tbaa !164
  call void @_ZN3fmt3v116detail6bufferIcE3setEPcm(ptr noundef nonnull align 8 dereferenceable(32) %6, ptr noundef %18, i64 noundef %20) #26
  call void @llvm.lifetime.end.p0(i64 16, ptr %5) #26
  ret void
}

; Function Attrs: mustprogress nounwind uwtable
define linkonce_odr hidden noundef zeroext i1 @_ZNKSt17integral_constantIbLb1EEcvbEv(ptr noundef nonnull align 1 dereferenceable(1) %0) #3 comdat align 2 {
  %2 = alloca ptr, align 8
  store ptr %0, ptr %2, align 8, !tbaa !160
  ret i1 true
}

; Function Attrs: mustprogress nounwind uwtable
define linkonce_odr hidden noundef zeroext i1 @_ZNK3fmt3v116detail10glibc_fileI8_IO_FILEE11is_bufferedEv(ptr noundef nonnull align 8 dereferenceable(8) %0) #3 comdat align 2 {
  %2 = alloca ptr, align 8
  store ptr %0, ptr %2, align 8, !tbaa !150
  %3 = load ptr, ptr %2, align 8
  %4 = getelementptr inbounds nuw %"class.fmt::v11::detail::file_base", ptr %3, i32 0, i32 0
  %5 = load ptr, ptr %4, align 8, !tbaa !152
  %6 = getelementptr inbounds nuw %struct._IO_FILE, ptr %5, i32 0, i32 0
  %7 = load i32, ptr %6, align 8, !tbaa !154
  %8 = and i32 %7, 2
  %9 = icmp eq i32 %8, 0
  ret i1 %9
}

; Function Attrs: inlinehint mustprogress uwtable
define linkonce_odr hidden void @_ZN3fmt3v116detail10glibc_fileI8_IO_FILEECI2NS1_9file_baseIS3_EEEPS3_(ptr noundef nonnull align 8 dereferenceable(8) %0, ptr noundef %1) unnamed_addr #7 comdat align 2 {
  %3 = alloca ptr, align 8
  %4 = alloca ptr, align 8
  store ptr %0, ptr %3, align 8, !tbaa !150
  store ptr %1, ptr %4, align 8, !tbaa !11
  %5 = load ptr, ptr %3, align 8
  %6 = load ptr, ptr %4, align 8, !tbaa !11
  call void @_ZN3fmt3v116detail9file_baseI8_IO_FILEEC2EPS3_(ptr noundef nonnull align 8 dereferenceable(8) %5, ptr noundef %6)
  ret void
}

; Function Attrs: mustprogress uwtable
define hidden void @_ZN3fmt3v116vprintEP8_IO_FILENS0_17basic_string_viewIcEENS0_17basic_format_argsINS0_7contextEEE(ptr noundef %0, ptr %1, i64 %2, i64 %3, ptr %4) #4 personality ptr @__gxx_personality_v0 {
  %6 = alloca %"class.fmt::v11::basic_string_view", align 8
  %7 = alloca %"class.fmt::v11::basic_format_args", align 8
  %8 = alloca ptr, align 8
  %9 = alloca %"class.fmt::v11::detail::glibc_file", align 8
  %10 = alloca %"struct.fmt::v11::detail::has_flockfile", align 1
  %11 = alloca %"class.fmt::v11::basic_string_view", align 8
  %12 = alloca %"class.fmt::v11::basic_format_args", align 8
  %13 = alloca ptr, align 8
  %14 = alloca %"class.fmt::v11::detail::file_print_buffer", align 8
  %15 = alloca %"class.fmt::v11::basic_string_view", align 8
  %16 = alloca %"class.fmt::v11::basic_format_args", align 8
  %17 = alloca %"struct.fmt::v11::detail::locale_ref", align 8
  %18 = alloca ptr, align 8
  %19 = alloca i32, align 4
  %20 = getelementptr inbounds nuw { ptr, i64 }, ptr %6, i32 0, i32 0
  store ptr %1, ptr %20, align 8
  %21 = getelementptr inbounds nuw { ptr, i64 }, ptr %6, i32 0, i32 1
  store i64 %2, ptr %21, align 8
  %22 = getelementptr inbounds nuw { i64, ptr }, ptr %7, i32 0, i32 0
  store i64 %3, ptr %22, align 8
  %23 = getelementptr inbounds nuw { i64, ptr }, ptr %7, i32 0, i32 1
  store ptr %4, ptr %23, align 8
  store ptr %0, ptr %8, align 8, !tbaa !11
  call void @llvm.lifetime.start.p0(i64 8, ptr %9) #26
  %24 = load ptr, ptr %8, align 8, !tbaa !11
  call void @_ZN3fmt3v116detail10glibc_fileI8_IO_FILEECI2NS1_9file_baseIS3_EEEPS3_(ptr noundef nonnull align 8 dereferenceable(8) %9, ptr noundef %24)
  %25 = call noundef zeroext i1 @_ZNK3fmt3v116detail10glibc_fileI8_IO_FILEE11is_bufferedEv(ptr noundef nonnull align 8 dereferenceable(8) %9)
  call void @llvm.lifetime.start.p0(i64 1, ptr %10) #26
  br i1 %25, label %26, label %29

26:                                               ; preds = %5
  %27 = call noundef zeroext i1 @_ZNKSt17integral_constantIbLb1EEcvbEv(ptr noundef nonnull align 1 dereferenceable(1) %10) #26
  %28 = xor i1 %27, true
  br label %29

29:                                               ; preds = %26, %5
  %30 = phi i1 [ true, %5 ], [ %28, %26 ]
  call void @llvm.lifetime.end.p0(i64 1, ptr %10) #26
  call void @llvm.lifetime.end.p0(i64 8, ptr %9) #26
  br i1 %30, label %31, label %41

31:                                               ; preds = %29
  %32 = load ptr, ptr %8, align 8, !tbaa !11
  call void @llvm.memcpy.p0.p0.i64(ptr align 8 %11, ptr align 8 %6, i64 16, i1 false), !tbaa.struct !30
  call void @llvm.memcpy.p0.p0.i64(ptr align 8 %12, ptr align 8 %7, i64 16, i1 false), !tbaa.struct !90
  %33 = getelementptr inbounds nuw { ptr, i64 }, ptr %11, i32 0, i32 0
  %34 = load ptr, ptr %33, align 8
  %35 = getelementptr inbounds nuw { ptr, i64 }, ptr %11, i32 0, i32 1
  %36 = load i64, ptr %35, align 8
  %37 = getelementptr inbounds nuw { i64, ptr }, ptr %12, i32 0, i32 0
  %38 = load i64, ptr %37, align 8
  %39 = getelementptr inbounds nuw { i64, ptr }, ptr %12, i32 0, i32 1
  %40 = load ptr, ptr %39, align 8
  call void @_ZN3fmt3v1115vprint_bufferedEP8_IO_FILENS0_17basic_string_viewIcEENS0_17basic_format_argsINS0_7contextEEE(ptr noundef %32, ptr %34, i64 %36, i64 %38, ptr %40)
  br label %60

41:                                               ; preds = %29
  call void @llvm.lifetime.start.p0(i64 8, ptr %13) #26
  call void @llvm.lifetime.start.p0(i64 40, ptr %14) #26
  %42 = load ptr, ptr %8, align 8, !tbaa !11
  call void @_ZN3fmt3v116detail17file_print_bufferI8_IO_FILEvEC2EPS3_(ptr noundef nonnull align 8 dereferenceable(40) %14, ptr noundef %42)
  store ptr %14, ptr %13, align 8, !tbaa !148
  %43 = load ptr, ptr %13, align 8, !tbaa !148
  call void @llvm.memcpy.p0.p0.i64(ptr align 8 %15, ptr align 8 %6, i64 16, i1 false), !tbaa.struct !30
  call void @llvm.memcpy.p0.p0.i64(ptr align 8 %16, ptr align 8 %7, i64 16, i1 false), !tbaa.struct !90
  invoke void @_ZN3fmt3v116detail10locale_refC2Ev(ptr noundef nonnull align 8 dereferenceable(8) %17)
          to label %44 unwind label %56

44:                                               ; preds = %41
  %45 = getelementptr inbounds nuw { ptr, i64 }, ptr %15, i32 0, i32 0
  %46 = load ptr, ptr %45, align 8
  %47 = getelementptr inbounds nuw { ptr, i64 }, ptr %15, i32 0, i32 1
  %48 = load i64, ptr %47, align 8
  %49 = getelementptr inbounds nuw { i64, ptr }, ptr %16, i32 0, i32 0
  %50 = load i64, ptr %49, align 8
  %51 = getelementptr inbounds nuw { i64, ptr }, ptr %16, i32 0, i32 1
  %52 = load ptr, ptr %51, align 8
  %53 = getelementptr inbounds nuw %"struct.fmt::v11::detail::locale_ref", ptr %17, i32 0, i32 0
  %54 = load ptr, ptr %53, align 8
  invoke void @_ZN3fmt3v116detail10vformat_toERNS1_6bufferIcEENS0_17basic_string_viewIcEENS0_17basic_format_argsINS0_7contextEEENS1_10locale_refE(ptr noundef nonnull align 8 dereferenceable(32) %43, ptr %46, i64 %48, i64 %50, ptr %52, ptr %54)
          to label %55 unwind label %56

55:                                               ; preds = %44
  call void @_ZN3fmt3v116detail17file_print_bufferI8_IO_FILEvED2Ev(ptr noundef nonnull align 8 dereferenceable(40) %14) #26
  call void @llvm.lifetime.end.p0(i64 40, ptr %14) #26
  call void @llvm.lifetime.end.p0(i64 8, ptr %13) #26
  br label %60

56:                                               ; preds = %44, %41
  %57 = landingpad { ptr, i32 }
          cleanup
  %58 = extractvalue { ptr, i32 } %57, 0
  store ptr %58, ptr %18, align 8
  %59 = extractvalue { ptr, i32 } %57, 1
  store i32 %59, ptr %19, align 4
  call void @_ZN3fmt3v116detail17file_print_bufferI8_IO_FILEvED2Ev(ptr noundef nonnull align 8 dereferenceable(40) %14) #26
  call void @llvm.lifetime.end.p0(i64 40, ptr %14) #26
  call void @llvm.lifetime.end.p0(i64 8, ptr %13) #26
  br label %61

60:                                               ; preds = %55, %31
  ret void

61:                                               ; preds = %56
  %62 = load ptr, ptr %18, align 8
  %63 = load i32, ptr %19, align 4
  %64 = insertvalue { ptr, i32 } poison, ptr %62, 0
  %65 = insertvalue { ptr, i32 } %64, i32 %63, 1
  resume { ptr, i32 } %65
}