; Function Attrs: mustprogress uwtable
define hidden void @_ZN3fmt3v116vprintEP8_IO_FILENS0_17basic_string_viewIcEENS0_17basic_format_argsINS0_7contextEEE(ptr noundef %0, ptr %1, i64 %2, i64 %3, ptr %4) local_unnamed_addr #7 personality ptr @__gxx_personality_v0 {
  %6 = alloca %"class.fmt::v11::detail::file_print_buffer", align 8
  %7 = load i32, ptr %0, align 8, !tbaa !126
  %8 = and i32 %7, 2
  %9 = icmp eq i32 %8, 0
  br i1 %9, label %10, label %.critedge

.critedge:                                        ; preds = %5
  tail call void @_ZN3fmt3v1115vprint_bufferedEP8_IO_FILENS0_17basic_string_viewIcEENS0_17basic_format_argsINS0_7contextEEE(ptr noundef nonnull %0, ptr %1, i64 %2, i64 %3, ptr %4)
  br label %49

10:                                               ; preds = %5
  call void @llvm.lifetime.start.p0(i64 40, ptr nonnull %6) #34
  %11 = getelementptr inbounds nuw i8, ptr %6, i64 8
  %12 = getelementptr inbounds nuw i8, ptr %6, i64 24
  store i64 0, ptr %11, align 8
  store ptr @_ZN3fmt3v116detail17file_print_bufferI8_IO_FILEvE4growERNS1_6bufferIcEEm, ptr %12, align 8, !tbaa !15
  %13 = getelementptr inbounds nuw i8, ptr %6, i64 32
  store ptr %0, ptr %13, align 8, !tbaa !132
  tail call void @flockfile(ptr noundef nonnull %0) #34
  %14 = getelementptr inbounds nuw i8, ptr %0, i64 40
  %15 = load ptr, ptr %14, align 8, !tbaa !134
  %.not.i.i = icmp eq ptr %15, null
  br i1 %.not.i.i, label %putc_unlocked.exit.i.i, label %_ZN3fmt3v116detail17file_print_bufferI8_IO_FILEvEC2EPS3_.exit

putc_unlocked.exit.i.i:                           ; preds = %10
  %16 = getelementptr inbounds nuw i8, ptr %0, i64 48
  %17 = load ptr, ptr %16, align 8, !tbaa !135
  %18 = icmp eq ptr %17, null
  tail call void @llvm.assume(i1 %18)
  %19 = tail call i32 @__overflow(ptr noundef nonnull %0, i32 noundef 0)
  %20 = load ptr, ptr %14, align 8, !tbaa !134
  %21 = getelementptr inbounds i8, ptr %20, i64 -1
  store ptr %21, ptr %14, align 8, !tbaa !134
  br label %_ZN3fmt3v116detail17file_print_bufferI8_IO_FILEvEC2EPS3_.exit

_ZN3fmt3v116detail17file_print_bufferI8_IO_FILEvEC2EPS3_.exit: ; preds = %10, %putc_unlocked.exit.i.i
  %22 = phi ptr [ %15, %10 ], [ %21, %putc_unlocked.exit.i.i ]
  %23 = getelementptr inbounds nuw i8, ptr %6, i64 16
  %24 = getelementptr inbounds nuw i8, ptr %0, i64 64
  %25 = load ptr, ptr %24, align 8, !tbaa !136
  %26 = ptrtoint ptr %25 to i64
  %27 = ptrtoint ptr %22 to i64
  %28 = sub i64 %26, %27
  store ptr %22, ptr %6, align 8, !tbaa !16
  store i64 %28, ptr %23, align 8, !tbaa !17
  invoke void @_ZN3fmt3v116detail10vformat_toERNS1_6bufferIcEENS0_17basic_string_viewIcEENS0_17basic_format_argsINS0_7contextEEENS1_10locale_refE(ptr noundef nonnull align 8 dereferenceable(32) %6, ptr %1, i64 %2, i64 %3, ptr %4, ptr null)
          to label %29 unwind label %47

29:                                               ; preds = %_ZN3fmt3v116detail17file_print_bufferI8_IO_FILEvEC2EPS3_.exit
  %30 = load i64, ptr %11, align 8, !tbaa !9
  %31 = load ptr, ptr %13, align 8, !tbaa !132
  %32 = getelementptr inbounds nuw i8, ptr %31, i64 40
  %33 = load ptr, ptr %32, align 8, !tbaa !134
  %34 = getelementptr inbounds nuw i8, ptr %33, i64 %30
  store ptr %34, ptr %32, align 8, !tbaa !134
  %35 = load i32, ptr %31, align 8, !tbaa !126
  %36 = and i32 %35, 512
  %37 = icmp eq i32 %36, 0
  br i1 %37, label %_ZNK3fmt3v116detail10glibc_fileI8_IO_FILEE11needs_flushEv.exit.thread.i, label %_ZNK3fmt3v116detail10glibc_fileI8_IO_FILEE11needs_flushEv.exit.i

_ZNK3fmt3v116detail10glibc_fileI8_IO_FILEE11needs_flushEv.exit.thread.i: ; preds = %29
  call void @funlockfile(ptr noundef nonnull %31) #34
  br label %_ZN3fmt3v116detail17file_print_bufferI8_IO_FILEvED2Ev.exit

_ZNK3fmt3v116detail10glibc_fileI8_IO_FILEE11needs_flushEv.exit.i: ; preds = %29
  %38 = getelementptr inbounds nuw i8, ptr %31, i64 48
  %39 = load ptr, ptr %38, align 8, !tbaa !135
  %40 = ptrtoint ptr %34 to i64
  %41 = ptrtoint ptr %39 to i64
  %42 = sub i64 %40, %41
  %43 = call noundef ptr @memchr(ptr noundef %39, i32 noundef 10, i64 noundef %42) #39
  %.not.i = icmp eq ptr %43, null
  call void @funlockfile(ptr noundef nonnull %31) #34
  br i1 %.not.i, label %_ZN3fmt3v116detail17file_print_bufferI8_IO_FILEvED2Ev.exit, label %44

44:                                               ; preds = %_ZNK3fmt3v116detail10glibc_fileI8_IO_FILEE11needs_flushEv.exit.i
  %45 = load ptr, ptr %13, align 8, !tbaa !132
  %46 = call i32 @fflush(ptr noundef %45)
  br label %_ZN3fmt3v116detail17file_print_bufferI8_IO_FILEvED2Ev.exit

_ZN3fmt3v116detail17file_print_bufferI8_IO_FILEvED2Ev.exit: ; preds = %_ZNK3fmt3v116detail10glibc_fileI8_IO_FILEE11needs_flushEv.exit.thread.i, %_ZNK3fmt3v116detail10glibc_fileI8_IO_FILEE11needs_flushEv.exit.i, %44
  call void @llvm.lifetime.end.p0(i64 40, ptr nonnull %6) #34
  br label %49

47:                                               ; preds = %_ZN3fmt3v116detail17file_print_bufferI8_IO_FILEvEC2EPS3_.exit
  %48 = landingpad { ptr, i32 }
          cleanup
  call void @_ZN3fmt3v116detail17file_print_bufferI8_IO_FILEvED2Ev(ptr noundef nonnull align 8 dereferenceable(40) %6) #34
  call void @llvm.lifetime.end.p0(i64 40, ptr nonnull %6) #34
  resume { ptr, i32 } %48

49:                                               ; preds = %_ZN3fmt3v116detail17file_print_bufferI8_IO_FILEvED2Ev.exit, %.critedge
  ret void
}